; Function Attrs: mustprogress uwtable
define internal noundef range(i64 -2147483648, 2147483648) i64 @_ZN12_GLOBAL__N_123cmWriteToMemoryCallbackEPvmmS0_(ptr noundef %0, i64 noundef %1, i64 noundef %2, ptr noundef nonnull %3) #5 {
  %5 = shl i64 %1, 32
  %sext = mul i64 %5, %2
  %6 = ashr exact i64 %sext, 32
  %7 = getelementptr inbounds i8, ptr %0, i64 %6
  %8 = getelementptr inbounds nuw i8, ptr %3, i64 8
  %9 = load ptr, ptr %8, align 8, !tbaa !68
  %10 = load ptr, ptr %3, align 8, !tbaa !68
  %11 = ptrtoint ptr %9 to i64
  %12 = ptrtoint ptr %10 to i64
  %13 = sub i64 %11, %12
  %14 = getelementptr inbounds i8, ptr %10, i64 %13
  tail call void @_ZNSt6vectorIcSaIcEE15_M_range_insertIPKcEEvN9__gnu_cxx17__normal_iteratorIPcS1_EET_S9_St20forward_iterator_tag(ptr noundef nonnull align 8 dereferenceable(24) %3, ptr %14, ptr noundef %0, ptr noundef %7)
  ret i64 %6
}